target datalayout = "e-m:e-p270:32:32-p271:32:32-p272:64:64-i64:64-i128:128-f80:128-n8:16:32:64-S128"
target triple = "x86_64-pc-linux-gnu"

%"struct.std::_Placeholder" = type { i8 }
%"struct.std::_Placeholder.9" = type { i8 }
%"class.pxrInternal_v0_24__pxrReserved__::VtArray" = type { %"class.pxrInternal_v0_24__pxrReserved__::Vt_ArrayBase", ptr }
%"class.pxrInternal_v0_24__pxrReserved__::Vt_ArrayBase" = type { %"struct.pxrInternal_v0_24__pxrReserved__::Vt_ShapeData", ptr }
%"struct.pxrInternal_v0_24__pxrReserved__::Vt_ShapeData" = type { i64, [3 x i32] }
%"class.pxrInternal_v0_24__pxrReserved__::_SmoothNormalsWorker" = type { ptr, ptr, ptr }
%"class.std::_Bind" = type { { i64, i64 }, %"class.std::tuple" }
%"class.std::tuple" = type { %"struct.std::_Tuple_impl" }
%"struct.std::_Tuple_impl" = type { %"struct.std::_Head_base.6" }
%"struct.std::_Head_base.6" = type { %"class.std::reference_wrapper" }
%"class.std::reference_wrapper" = type { ptr }
%"class.pxrInternal_v0_24__pxrReserved__::Hd_VertexAdjacency" = type { i32, %"class.pxrInternal_v0_24__pxrReserved__::VtArray.0" }
%"class.pxrInternal_v0_24__pxrReserved__::VtArray.0" = type { %"class.pxrInternal_v0_24__pxrReserved__::Vt_ArrayBase", ptr }

@_ZNSt12placeholders2_1E = external global %"struct.std::_Placeholder", align 1
@_ZNSt12placeholders2_2E = external global %"struct.std::_Placeholder.9", align 1

; Function Attrs: mustprogress nounwind uwtable
define linkonce_odr void @_ZNSt10_Head_baseILm2ESt12_PlaceholderILi2EELb1EEC2ERKS1_(ptr noundef nonnull align 1 dereferenceable(1) %0, ptr noundef nonnull align 1 dereferenceable(1) %1) unnamed_addr #1 comdat align 2 {
  %3 = alloca ptr, align 8
  %4 = alloca ptr, align 8
  store ptr %0, ptr %3, align 8
  store ptr %1, ptr %4, align 8
  ret void
}

; Function Attrs: mustprogress nounwind uwtable
define linkonce_odr void @_ZNSt10_Head_baseILm1ESt12_PlaceholderILi1EELb1EEC2ERKS1_(ptr noundef nonnull align 1 dereferenceable(1) %0, ptr noundef nonnull align 1 dereferenceable(1) %1) unnamed_addr #1 comdat align 2 {
  %3 = alloca ptr, align 8
  %4 = alloca ptr, align 8
  store ptr %0, ptr %3, align 8
  store ptr %1, ptr %4, align 8
  ret void
}

; Function Attrs: mustprogress uwtable
define linkonce_odr void @_ZNSt11_Tuple_implILm2EJSt12_PlaceholderILi2EEEEC2ERKS1_(ptr noundef nonnull align 1 dereferenceable(1) %0, ptr noundef nonnull align 1 dereferenceable(1) %1) unnamed_addr #0 comdat align 2 {
  %3 = alloca ptr, align 8
  %4 = alloca ptr, align 8
  store ptr %0, ptr %3, align 8
  store ptr %1, ptr %4, align 8
  %5 = load ptr, ptr %3, align 8
  %6 = load ptr, ptr %4, align 8
  call void @_ZNSt10_Head_baseILm2ESt12_PlaceholderILi2EELb1EEC2ERKS1_(ptr noundef nonnull align 1 dereferenceable(1) %5, ptr noundef nonnull align 1 dereferenceable(1) %6)
  ret void
}

; Function Attrs: mustprogress nounwind uwtable
define linkonce_odr void @_ZNSt10_Head_baseILm0ESt17reference_wrapperIN32pxrInternal_v0_24__pxrReserved__20_SmoothNormalsWorkerINS1_7GfVec3fES3_EEELb0EEC2IS5_EEOT_(ptr noundef nonnull align 8 dereferenceable(8) %0, ptr noundef nonnull align 8 dereferenceable(8) %1) unnamed_addr #1 comdat align 2 {
  %3 = alloca ptr, align 8
  %4 = alloca ptr, align 8
  store ptr %0, ptr %3, align 8
  store ptr %1, ptr %4, align 8
  %5 = load ptr, ptr %3, align 8
  %6 = getelementptr inbounds nuw %"struct.std::_Head_base.6", ptr %5, i32 0, i32 0
  %7 = load ptr, ptr %4, align 8
  call void @llvm.memcpy.p0.p0.i64(ptr align 8 %6, ptr align 8 %7, i64 8, i1 false)
  ret void
}

; Function Attrs: mustprogress uwtable
define linkonce_odr void @_ZNSt11_Tuple_implILm1EJSt12_PlaceholderILi1EES0_ILi2EEEEC2ERKS1_RKS2_(ptr noundef nonnull align 1 dereferenceable(1) %0, ptr noundef nonnull align 1 dereferenceable(1) %1, ptr noundef nonnull align 1 dereferenceable(1) %2) unnamed_addr #0 comdat align 2 {
  %4 = alloca ptr, align 8
  %5 = alloca ptr, align 8
  %6 = alloca ptr, align 8
  store ptr %0, ptr %4, align 8
  store ptr %1, ptr %5, align 8
  store ptr %2, ptr %6, align 8
  %7 = load ptr, ptr %4, align 8
  %8 = load ptr, ptr %6, align 8
  call void @_ZNSt11_Tuple_implILm2EJSt12_PlaceholderILi2EEEEC2ERKS1_(ptr noundef nonnull align 1 dereferenceable(1) %7, ptr noundef nonnull align 1 dereferenceable(1) %8)
  %9 = load ptr, ptr %5, align 8
  call void @_ZNSt10_Head_baseILm1ESt12_PlaceholderILi1EELb1EEC2ERKS1_(ptr noundef nonnull align 1 dereferenceable(1) %7, ptr noundef nonnull align 1 dereferenceable(1) %9)
  ret void
}

; Function Attrs: noreturn nounwind uwtable
define linkonce_odr hidden void @__clang_call_terminate(ptr noundef %0) #9 comdat {
  %2 = call ptr @__cxa_begin_catch(ptr %0) #13
  call void @_ZSt9terminatev() #14
  unreachable
}

; Function Attrs: mustprogress uwtable
define linkonce_odr void @_ZNSt11_Tuple_implILm0EJSt17reference_wrapperIN32pxrInternal_v0_24__pxrReserved__20_SmoothNormalsWorkerINS1_7GfVec3fES3_EEESt12_PlaceholderILi1EES6_ILi2EEEEC2IS5_JRKS7_RKS8_EvEEOT_DpOT0_(ptr noundef nonnull align 8 dereferenceable(8) %0, ptr noundef nonnull align 8 dereferenceable(8) %1, ptr noundef nonnull align 1 dereferenceable(1) %2, ptr noundef nonnull align 1 dereferenceable(1) %3) unnamed_addr #0 comdat align 2 {
  %5 = alloca ptr, align 8
  %6 = alloca ptr, align 8
  %7 = alloca ptr, align 8
  %8 = alloca ptr, align 8
  store ptr %0, ptr %5, align 8
  store ptr %1, ptr %6, align 8
  store ptr %2, ptr %7, align 8
  store ptr %3, ptr %8, align 8
  %9 = load ptr, ptr %5, align 8
  %10 = load ptr, ptr %7, align 8
  %11 = load ptr, ptr %8, align 8
  call void @_ZNSt11_Tuple_implILm1EJSt12_PlaceholderILi1EES0_ILi2EEEEC2ERKS1_RKS2_(ptr noundef nonnull align 1 dereferenceable(1) %9, ptr noundef nonnull align 1 dereferenceable(1) %10, ptr noundef nonnull align 1 dereferenceable(1) %11)
  %12 = load ptr, ptr %6, align 8
  call void @_ZNSt10_Head_baseILm0ESt17reference_wrapperIN32pxrInternal_v0_24__pxrReserved__20_SmoothNormalsWorkerINS1_7GfVec3fES3_EEELb0EEC2IS5_EEOT_(ptr noundef nonnull align 8 dereferenceable(8) %9, ptr noundef nonnull align 8 dereferenceable(8) %12)
  ret void
}

; Function Attrs: mustprogress nounwind uwtable
define linkonce_odr void @_ZNSt5tupleIJSt17reference_wrapperIN32pxrInternal_v0_24__pxrReserved__20_SmoothNormalsWorkerINS1_7GfVec3fES3_EEESt12_PlaceholderILi1EES6_ILi2EEEEC2IJS5_RKS7_RKS8_ELb1ETnNSt9enable_ifIXclsr4_TCCIXT0_EEE29__is_implicitly_constructibleIDpT_EEEbE4typeELb1EEEDpOSG_(ptr noundef nonnull align 8 dereferenceable(8) %0, ptr noundef nonnull align 8 dereferenceable(8) %1, ptr noundef nonnull align 1 dereferenceable(1) %2, ptr noundef nonnull align 1 dereferenceable(1) %3) unnamed_addr #1 comdat align 2 personality ptr @__gxx_personality_v0 {
  %5 = alloca ptr, align 8
  %6 = alloca ptr, align 8
  %7 = alloca ptr, align 8
  %8 = alloca ptr, align 8
  store ptr %0, ptr %5, align 8
  store ptr %1, ptr %6, align 8
  store ptr %2, ptr %7, align 8
  store ptr %3, ptr %8, align 8
  %9 = load ptr, ptr %5, align 8
  %10 = load ptr, ptr %6, align 8
  %11 = load ptr, ptr %7, align 8
  %12 = load ptr, ptr %8, align 8
  invoke void @_ZNSt11_Tuple_implILm0EJSt17reference_wrapperIN32pxrInternal_v0_24__pxrReserved__20_SmoothNormalsWorkerINS1_7GfVec3fES3_EEESt12_PlaceholderILi1EES6_ILi2EEEEC2IS5_JRKS7_RKS8_EvEEOT_DpOT0_(ptr noundef nonnull align 8 dereferenceable(8) %9, ptr noundef nonnull align 8 dereferenceable(8) %10, ptr noundef nonnull align 1 dereferenceable(1) %11, ptr noundef nonnull align 1 dereferenceable(1) %12)
          to label %13 unwind label %14

13:                                               ; preds = %4
  ret void

14:                                               ; preds = %4
  %15 = landingpad { ptr, i32 }
          catch ptr null
  %16 = extractvalue { ptr, i32 } %15, 0
  call void @__clang_call_terminate(ptr %16) #14
  unreachable
}

; Function Attrs: mustprogress nounwind uwtable
define linkonce_odr noundef ptr @_ZNSt17reference_wrapperIN32pxrInternal_v0_24__pxrReserved__20_SmoothNormalsWorkerINS0_7GfVec3fES2_EEE6_S_funERS3_(ptr noundef nonnull align 8 dereferenceable(24) %0) #1 comdat align 2 {
  %2 = alloca ptr, align 8
  store ptr %0, ptr %2, align 8
  %3 = load ptr, ptr %2, align 8
  ret ptr %3
}

; Function Attrs: mustprogress nounwind uwtable
define linkonce_odr void @_ZNSt5_BindIFMN32pxrInternal_v0_24__pxrReserved__20_SmoothNormalsWorkerINS0_7GfVec3fES2_EEFvmmESt17reference_wrapperIS3_ESt12_PlaceholderILi1EES8_ILi2EEEEC2IJS7_RKS9_RKSA_EEEOS5_DpOT_(ptr noundef nonnull align 8 dereferenceable(24) %0, ptr noundef nonnull align 8 dereferenceable(16) %1, ptr noundef nonnull align 8 dereferenceable(8) %2, ptr noundef nonnull align 1 dereferenceable(1) %3, ptr noundef nonnull align 1 dereferenceable(1) %4) unnamed_addr #1 comdat align 2 {
  %6 = alloca ptr, align 8
  %7 = alloca ptr, align 8
  %8 = alloca ptr, align 8
  %9 = alloca ptr, align 8
  %10 = alloca ptr, align 8
  store ptr %0, ptr %6, align 8
  store ptr %1, ptr %7, align 8
  store ptr %2, ptr %8, align 8
  store ptr %3, ptr %9, align 8
  store ptr %4, ptr %10, align 8
  %11 = load ptr, ptr %6, align 8
  %12 = getelementptr inbounds nuw %"class.std::_Bind", ptr %11, i32 0, i32 0
  %13 = load ptr, ptr %7, align 8
  %14 = load { i64, i64 }, ptr %13, align 8
  store { i64, i64 } %14, ptr %12, align 8
  %15 = getelementptr inbounds nuw %"class.std::_Bind", ptr %11, i32 0, i32 1
  %16 = load ptr, ptr %8, align 8
  %17 = load ptr, ptr %9, align 8
  %18 = load ptr, ptr %10, align 8
  call void @_ZNSt5tupleIJSt17reference_wrapperIN32pxrInternal_v0_24__pxrReserved__20_SmoothNormalsWorkerINS1_7GfVec3fES3_EEESt12_PlaceholderILi1EES6_ILi2EEEEC2IJS5_RKS7_RKS8_ELb1ETnNSt9enable_ifIXclsr4_TCCIXT0_EEE29__is_implicitly_constructibleIDpT_EEEbE4typeELb1EEEDpOSG_(ptr noundef nonnull align 8 dereferenceable(8) %15, ptr noundef nonnull align 8 dereferenceable(8) %16, ptr noundef nonnull align 1 dereferenceable(1) %17, ptr noundef nonnull align 1 dereferenceable(1) %18) #13
  ret void
}

; Function Attrs: mustprogress nounwind uwtable
define linkonce_odr void @_ZNSt17reference_wrapperIN32pxrInternal_v0_24__pxrReserved__20_SmoothNormalsWorkerINS0_7GfVec3fES2_EEEC2IRS3_vPS3_EEOT_(ptr noundef nonnull align 8 dereferenceable(8) %0, ptr noundef nonnull align 8 dereferenceable(24) %1) unnamed_addr #1 comdat align 2 {
  %3 = alloca ptr, align 8
  %4 = alloca ptr, align 8
  store ptr %0, ptr %3, align 8
  store ptr %1, ptr %4, align 8
  %5 = load ptr, ptr %3, align 8
  %6 = getelementptr inbounds nuw %"class.std::reference_wrapper", ptr %5, i32 0, i32 0
  %7 = load ptr, ptr %4, align 8
  %8 = call noundef ptr @_ZNSt17reference_wrapperIN32pxrInternal_v0_24__pxrReserved__20_SmoothNormalsWorkerINS0_7GfVec3fES2_EEE6_S_funERS3_(ptr noundef nonnull align 8 dereferenceable(24) %7) #13
  store ptr %8, ptr %6, align 8
  ret void
}

; Function Attrs: mustprogress uwtable
define linkonce_odr void @_ZN32pxrInternal_v0_24__pxrReserved__16WorkParallelForNISt5_BindIFMNS_20_SmoothNormalsWorkerINS_7GfVec3fES3_EEFvmmESt17reference_wrapperIS4_ESt12_PlaceholderILi1EES9_ILi2EEEEEEvmOT_(i64 noundef %0, ptr noundef nonnull align 8 dereferenceable(24) %1) #0 comdat {
  %3 = alloca i64, align 8
  %4 = alloca ptr, align 8
  store i64 %0, ptr %3, align 8
  store ptr %1, ptr %4, align 8
  %5 = load i64, ptr %3, align 8
  %6 = load ptr, ptr %4, align 8
  call void @_ZN32pxrInternal_v0_24__pxrReserved__16WorkParallelForNISt5_BindIFMNS_20_SmoothNormalsWorkerINS_7GfVec3fES3_EEFvmmESt17reference_wrapperIS4_ESt12_PlaceholderILi1EES9_ILi2EEEEEEvmOT_m(i64 noundef %5, ptr noundef nonnull align 8 dereferenceable(24) %6, i64 noundef 1)
  ret void
}

; Function Attrs: mustprogress uwtable
define linkonce_odr void @_ZSt4bindIMN32pxrInternal_v0_24__pxrReserved__20_SmoothNormalsWorkerINS0_7GfVec3fES2_EEFvmmEJSt17reference_wrapperIS3_ERKSt12_PlaceholderILi1EERKS8_ILi2EEEENSt12_Bind_helperIXsr15__is_socketlikeIT_EE5valueESG_JDpT0_EE4typeEOSG_DpOSH_(ptr dead_on_unwind noalias writable sret(%"class.std::_Bind") align 8 %0, ptr noundef nonnull align 8 dereferenceable(16) %1, ptr noundef nonnull align 8 dereferenceable(8) %2, ptr noundef nonnull align 1 dereferenceable(1) %3, ptr noundef nonnull align 1 dereferenceable(1) %4) #0 comdat {
  %6 = alloca ptr, align 8
  %7 = alloca ptr, align 8
  %8 = alloca ptr, align 8
  %9 = alloca ptr, align 8
  %10 = alloca ptr, align 8
  store ptr %0, ptr %6, align 8
  store ptr %1, ptr %7, align 8
  store ptr %2, ptr %8, align 8
  store ptr %3, ptr %9, align 8
  store ptr %4, ptr %10, align 8
  %11 = load ptr, ptr %7, align 8
  %12 = load ptr, ptr %8, align 8
  %13 = load ptr, ptr %9, align 8
  %14 = load ptr, ptr %10, align 8
  call void @_ZNSt5_BindIFMN32pxrInternal_v0_24__pxrReserved__20_SmoothNormalsWorkerINS0_7GfVec3fES2_EEFvmmESt17reference_wrapperIS3_ESt12_PlaceholderILi1EES8_ILi2EEEEC2IJS7_RKS9_RKSA_EEEOS5_DpOT_(ptr noundef nonnull align 8 dereferenceable(24) %0, ptr noundef nonnull align 8 dereferenceable(16) %11, ptr noundef nonnull align 8 dereferenceable(8) %12, ptr noundef nonnull align 1 dereferenceable(1) %13, ptr noundef nonnull align 1 dereferenceable(1) %14)
  ret void
}

; Function Attrs: mustprogress nounwind uwtable
define linkonce_odr ptr @_ZSt3refIN32pxrInternal_v0_24__pxrReserved__20_SmoothNormalsWorkerINS0_7GfVec3fES2_EEESt17reference_wrapperIT_ERS5_(ptr noundef nonnull align 8 dereferenceable(24) %0) #1 comdat {
  %2 = alloca %"class.std::reference_wrapper", align 8
  %3 = alloca ptr, align 8
  store ptr %0, ptr %3, align 8
  %4 = load ptr, ptr %3, align 8
  call void @_ZNSt17reference_wrapperIN32pxrInternal_v0_24__pxrReserved__20_SmoothNormalsWorkerINS0_7GfVec3fES2_EEEC2IRS3_vPS3_EEOT_(ptr noundef nonnull align 8 dereferenceable(8) %2, ptr noundef nonnull align 8 dereferenceable(24) %4) #13
  %5 = getelementptr inbounds nuw %"class.std::reference_wrapper", ptr %2, i32 0, i32 0
  %6 = load ptr, ptr %5, align 8
  ret ptr %6
}

; Function Attrs: mustprogress nounwind uwtable
define linkonce_odr void @_ZN32pxrInternal_v0_24__pxrReserved__20_SmoothNormalsWorkerINS_7GfVec3fES1_EC2EPKS1_RKNS_7VtArrayIiEEPS1_(ptr noundef nonnull align 8 dereferenceable(24) %0, ptr noundef %1, ptr noundef nonnull align 8 dereferenceable(40) %2, ptr noundef %3) unnamed_addr #1 comdat align 2 {
  %5 = alloca ptr, align 8
  %6 = alloca ptr, align 8
  %7 = alloca ptr, align 8
  %8 = alloca ptr, align 8
  store ptr %0, ptr %5, align 8
  store ptr %1, ptr %6, align 8
  store ptr %2, ptr %7, align 8
  store ptr %3, ptr %8, align 8
  %9 = load ptr, ptr %5, align 8
  %10 = getelementptr inbounds nuw %"class.pxrInternal_v0_24__pxrReserved__::_SmoothNormalsWorker", ptr %9, i32 0, i32 0
  %11 = load ptr, ptr %6, align 8
  store ptr %11, ptr %10, align 8
  %12 = getelementptr inbounds nuw %"class.pxrInternal_v0_24__pxrReserved__::_SmoothNormalsWorker", ptr %9, i32 0, i32 1
  %13 = load ptr, ptr %7, align 8
  store ptr %13, ptr %12, align 8
  %14 = getelementptr inbounds nuw %"class.pxrInternal_v0_24__pxrReserved__::_SmoothNormalsWorker", ptr %9, i32 0, i32 2
  %15 = load ptr, ptr %8, align 8
  store ptr %15, ptr %14, align 8
  ret void
}

; Function Attrs: mustprogress nounwind uwtable
define linkonce_odr noundef nonnull align 4 dereferenceable(4) ptr @_ZSt3minIiERKT_S2_S2_(ptr noundef nonnull align 4 dereferenceable(4) %0, ptr noundef nonnull align 4 dereferenceable(4) %1) #1 comdat {
  %3 = alloca ptr, align 8
  %4 = alloca ptr, align 8
  %5 = alloca ptr, align 8
  store ptr %0, ptr %4, align 8
  store ptr %1, ptr %5, align 8
  %6 = load ptr, ptr %5, align 8
  %7 = load i32, ptr %6, align 4
  %8 = load ptr, ptr %4, align 8
  %9 = load i32, ptr %8, align 4
  %10 = icmp slt i32 %7, %9
  br i1 %10, label %11, label %13

11:                                               ; preds = %2
  %12 = load ptr, ptr %5, align 8
  store ptr %12, ptr %3, align 8
  br label %15

13:                                               ; preds = %2
  %14 = load ptr, ptr %4, align 8
  store ptr %14, ptr %3, align 8
  br label %15

15:                                               ; preds = %13, %11
  %16 = load ptr, ptr %3, align 8
  ret ptr %16
}

; Function Attrs: mustprogress uwtable
define linkonce_odr void @_ZN32pxrInternal_v0_24__pxrReserved__21_ComputeSmoothNormalsINS_7GfVec3fES1_EENS_7VtArrayIT0_EEiPKT_RKNS2_IiEEi(ptr dead_on_unwind noalias writable sret(%"class.pxrInternal_v0_24__pxrReserved__::VtArray") align 8 %0, i32 noundef %1, ptr noundef %2, ptr noundef nonnull align 8 dereferenceable(40) %3, i32 noundef %4) #0 comdat personality ptr @__gxx_personality_v0 {
  %6 = alloca ptr, align 8
  %7 = alloca i32, align 4
  %8 = alloca ptr, align 8
  %9 = alloca ptr, align 8
  %10 = alloca i32, align 4
  %11 = alloca i1, align 1
  %12 = alloca %"class.pxrInternal_v0_24__pxrReserved__::_SmoothNormalsWorker", align 8
  %13 = alloca ptr, align 8
  %14 = alloca i32, align 4
  %15 = alloca %"class.std::_Bind", align 8
  %16 = alloca { i64, i64 }, align 8
  %17 = alloca %"class.std::reference_wrapper", align 8
  store ptr %0, ptr %6, align 8
  store i32 %1, ptr %7, align 4
  store ptr %2, ptr %8, align 8
  store ptr %3, ptr %9, align 8
  store i32 %4, ptr %10, align 4
  %18 = call noundef nonnull align 4 dereferenceable(4) ptr @_ZSt3minIiERKT_S2_S2_(ptr noundef nonnull align 4 dereferenceable(4) %7, ptr noundef nonnull align 4 dereferenceable(4) %10)
  %19 = load i32, ptr %18, align 4
  store i32 %19, ptr %7, align 4
  store i1 false, ptr %11, align 1
  %20 = load i32, ptr %7, align 4
  %21 = sext i32 %20 to i64
  call void @_ZN32pxrInternal_v0_24__pxrReserved__7VtArrayINS_7GfVec3fEEC1Em(ptr noundef nonnull align 8 dereferenceable(40) %0, i64 noundef %21)
  %22 = load ptr, ptr %8, align 8
  %23 = load ptr, ptr %9, align 8
  %24 = invoke noundef ptr @_ZN32pxrInternal_v0_24__pxrReserved__7VtArrayINS_7GfVec3fEE4dataEv(ptr noundef nonnull align 8 dereferenceable(40) %0)
          to label %25 unwind label %34

25:                                               ; preds = %5
  invoke void @_ZN32pxrInternal_v0_24__pxrReserved__20_SmoothNormalsWorkerINS_7GfVec3fES1_EC2EPKS1_RKNS_7VtArrayIiEEPS1_(ptr noundef nonnull align 8 dereferenceable(24) %12, ptr noundef %22, ptr noundef nonnull align 8 dereferenceable(40) %23, ptr noundef %24)
          to label %26 unwind label %34

26:                                               ; preds = %25
  %27 = load i32, ptr %7, align 4
  %28 = sext i32 %27 to i64
  store { i64, i64 } { i64 ptrtoint (ptr @_ZN32pxrInternal_v0_24__pxrReserved__20_SmoothNormalsWorkerINS_7GfVec3fES1_E7ComputeEmm to i64), i64 0 }, ptr %16, align 8
  %29 = call ptr @_ZSt3refIN32pxrInternal_v0_24__pxrReserved__20_SmoothNormalsWorkerINS0_7GfVec3fES2_EEESt17reference_wrapperIT_ERS5_(ptr noundef nonnull align 8 dereferenceable(24) %12) #13
  %30 = getelementptr inbounds nuw %"class.std::reference_wrapper", ptr %17, i32 0, i32 0
  store ptr %29, ptr %30, align 8
  invoke void @_ZSt4bindIMN32pxrInternal_v0_24__pxrReserved__20_SmoothNormalsWorkerINS0_7GfVec3fES2_EEFvmmEJSt17reference_wrapperIS3_ERKSt12_PlaceholderILi1EERKS8_ILi2EEEENSt12_Bind_helperIXsr15__is_socketlikeIT_EE5valueESG_JDpT0_EE4typeEOSG_DpOSH_(ptr dead_on_unwind writable sret(%"class.std::_Bind") align 8 %15, ptr noundef nonnull align 8 dereferenceable(16) %16, ptr noundef nonnull align 8 dereferenceable(8) %17, ptr noundef nonnull align 1 dereferenceable(1) @_ZNSt12placeholders2_1E, ptr noundef nonnull align 1 dereferenceable(1) @_ZNSt12placeholders2_2E)
          to label %31 unwind label %34

31:                                               ; preds = %26
  invoke void @_ZN32pxrInternal_v0_24__pxrReserved__16WorkParallelForNISt5_BindIFMNS_20_SmoothNormalsWorkerINS_7GfVec3fES3_EEFvmmESt17reference_wrapperIS4_ESt12_PlaceholderILi1EES9_ILi2EEEEEEvmOT_(i64 noundef %28, ptr noundef nonnull align 8 dereferenceable(24) %15)
          to label %32 unwind label %34

32:                                               ; preds = %31
  store i1 true, ptr %11, align 1
  %33 = load i1, ptr %11, align 1
  br i1 %33, label %39, label %38

34:                                               ; preds = %31, %26, %25, %5
  %35 = landingpad { ptr, i32 }
          cleanup
  %36 = extractvalue { ptr, i32 } %35, 0
  store ptr %36, ptr %13, align 8
  %37 = extractvalue { ptr, i32 } %35, 1
  store i32 %37, ptr %14, align 4
  call void @_ZN32pxrInternal_v0_24__pxrReserved__7VtArrayINS_7GfVec3fEED1Ev(ptr noundef nonnull align 8 dereferenceable(40) %0) #13
  br label %40

38:                                               ; preds = %32
  call void @_ZN32pxrInternal_v0_24__pxrReserved__7VtArrayINS_7GfVec3fEED1Ev(ptr noundef nonnull align 8 dereferenceable(40) %0) #13
  br label %39

39:                                               ; preds = %38, %32
  ret void

40:                                               ; preds = %34
  %41 = load ptr, ptr %13, align 8
  %42 = load i32, ptr %14, align 4
  %43 = insertvalue { ptr, i32 } poison, ptr %41, 0
  %44 = insertvalue { ptr, i32 } %43, i32 %42, 1
  resume { ptr, i32 } %44
}

; Function Attrs: mustprogress nounwind uwtable
define linkonce_odr noundef i32 @_ZNK32pxrInternal_v0_24__pxrReserved__18Hd_VertexAdjacency12GetNumPointsEv(ptr noundef nonnull align 8 dereferenceable(48) %0) #1 comdat align 2 {
  %2 = alloca ptr, align 8
  store ptr %0, ptr %2, align 8
  %3 = load ptr, ptr %2, align 8
  %4 = getelementptr inbounds nuw %"class.pxrInternal_v0_24__pxrReserved__::Hd_VertexAdjacency", ptr %3, i32 0, i32 0
  %5 = load i32, ptr %4, align 8
  ret i32 %5
}

; Function Attrs: mustprogress nounwind uwtable
define linkonce_odr noundef nonnull align 8 dereferenceable(40) ptr @_ZNK32pxrInternal_v0_24__pxrReserved__18Hd_VertexAdjacency17GetAdjacencyTableEv(ptr noundef nonnull align 8 dereferenceable(48) %0) #1 comdat align 2 {
  %2 = alloca ptr, align 8
  store ptr %0, ptr %2, align 8
  %3 = load ptr, ptr %2, align 8
  %4 = getelementptr inbounds nuw %"class.pxrInternal_v0_24__pxrReserved__::Hd_VertexAdjacency", ptr %3, i32 0, i32 1
  ret ptr %4
}

; Function Attrs: mustprogress uwtable
define void @_ZN32pxrInternal_v0_24__pxrReserved__16Hd_SmoothNormals20ComputeSmoothNormalsEPKNS_18Hd_VertexAdjacencyEiPKNS_7GfVec3fE(ptr dead_on_unwind noalias writable sret(%"class.pxrInternal_v0_24__pxrReserved__::VtArray") align 8 %0, ptr noundef %1, i32 noundef %2, ptr noundef %3) #0 align 2 {
  %5 = alloca ptr, align 8
  %6 = alloca ptr, align 8
  %7 = alloca i32, align 4
  %8 = alloca ptr, align 8
  store ptr %0, ptr %5, align 8
  store ptr %1, ptr %6, align 8
  store i32 %2, ptr %7, align 4
  store ptr %3, ptr %8, align 8
  %9 = load i32, ptr %7, align 4
  %10 = load ptr, ptr %8, align 8
  %11 = load ptr, ptr %6, align 8
  %12 = call noundef nonnull align 8 dereferenceable(40) ptr @_ZNK32pxrInternal_v0_24__pxrReserved__18Hd_VertexAdjacency17GetAdjacencyTableEv(ptr noundef nonnull align 8 dereferenceable(48) %11)
  %13 = load ptr, ptr %6, align 8
  %14 = call noundef i32 @_ZNK32pxrInternal_v0_24__pxrReserved__18Hd_VertexAdjacency12GetNumPointsEv(ptr noundef nonnull align 8 dereferenceable(48) %13)
  call void @_ZN32pxrInternal_v0_24__pxrReserved__21_ComputeSmoothNormalsINS_7GfVec3fES1_EENS_7VtArrayIT0_EEiPKT_RKNS2_IiEEi(ptr dead_on_unwind writable sret(%"class.pxrInternal_v0_24__pxrReserved__::VtArray") align 8 %0, i32 noundef %9, ptr noundef %10, ptr noundef nonnull align 8 dereferenceable(40) %12, i32 noundef %14)
  ret void
}