; Function Attrs: mustprogress uwtable
define void @_ZN32pxrInternal_v0_24__pxrReserved__16Hd_SmoothNormals20ComputeSmoothNormalsEPKNS_18Hd_VertexAdjacencyEiPKNS_7GfVec3fE(ptr dead_on_unwind noalias nonnull writable sret(%"class.pxrInternal_v0_24__pxrReserved__::VtArray") align 8 %0, ptr noundef %1, i32 noundef %2, ptr noundef %3) local_unnamed_addr #0 align 2 personality ptr @__gxx_personality_v0 {
  %5 = alloca %"class.pxrInternal_v0_24__pxrReserved__::_SmoothNormalsWorker", align 8
  %6 = alloca %"class.std::_Bind", align 8
  %7 = load i32, ptr %1, align 8
  call void @llvm.lifetime.start.p0(i64 24, ptr nonnull %5)
  call void @llvm.lifetime.start.p0(i64 24, ptr nonnull %6)
  %.sroa.speculated.i = tail call i32 @llvm.smin.i32(i32 %7, i32 %2)
  %8 = sext i32 %.sroa.speculated.i to i64
  tail call void @_ZN32pxrInternal_v0_24__pxrReserved__7VtArrayINS_7GfVec3fEEC1Em(ptr noundef nonnull align 8 dereferenceable(40) %0, i64 noundef %8)
  %9 = invoke noundef ptr @_ZN32pxrInternal_v0_24__pxrReserved__7VtArrayINS_7GfVec3fEE4dataEv(ptr noundef nonnull align 8 dereferenceable(40) %0)
          to label %10 unwind label %16

10:                                               ; preds = %4
  %11 = getelementptr inbounds nuw i8, ptr %1, i64 8
  store ptr %3, ptr %5, align 8, !noalias !4
  %12 = getelementptr inbounds nuw i8, ptr %5, i64 8
  store ptr %11, ptr %12, align 8, !noalias !4
  %13 = getelementptr inbounds nuw i8, ptr %5, i64 16
  store ptr %9, ptr %13, align 8, !noalias !4
  store i64 ptrtoint (ptr @_ZN32pxrInternal_v0_24__pxrReserved__20_SmoothNormalsWorkerINS_7GfVec3fES1_E7ComputeEmm to i64), ptr %6, align 8, !alias.scope !7, !noalias !4
  %.repack7.i.i.i = getelementptr inbounds i8, ptr %6, i64 8
  store i64 0, ptr %.repack7.i.i.i, align 8, !alias.scope !7, !noalias !4
  %14 = getelementptr inbounds nuw i8, ptr %6, i64 16
  %15 = ptrtoint ptr %5 to i64
  store i64 %15, ptr %14, align 8, !alias.scope !7, !noalias !4
  invoke void @_ZN32pxrInternal_v0_24__pxrReserved__16WorkParallelForNISt5_BindIFMNS_20_SmoothNormalsWorkerINS_7GfVec3fES3_EEFvmmESt17reference_wrapperIS4_ESt12_PlaceholderILi1EES9_ILi2EEEEEEvmOT_m(i64 noundef %8, ptr noundef nonnull align 8 dereferenceable(24) %6, i64 noundef 1)
          to label %_ZN32pxrInternal_v0_24__pxrReserved__21_ComputeSmoothNormalsINS_7GfVec3fES1_EENS_7VtArrayIT0_EEiPKT_RKNS2_IiEEi.exit unwind label %16

16:                                               ; preds = %10, %4
  %17 = landingpad { ptr, i32 }
          cleanup
  call void @_ZN32pxrInternal_v0_24__pxrReserved__7VtArrayINS_7GfVec3fEED1Ev(ptr noundef nonnull align 8 dereferenceable(40) %0) #15
  resume { ptr, i32 } %17

_ZN32pxrInternal_v0_24__pxrReserved__21_ComputeSmoothNormalsINS_7GfVec3fES1_EENS_7VtArrayIT0_EEiPKT_RKNS2_IiEEi.exit: ; preds = %10
  call void @llvm.lifetime.end.p0(i64 24, ptr nonnull %5)
  call void @llvm.lifetime.end.p0(i64 24, ptr nonnull %6)
  ret void
}